target datalayout = "e-m:e-p270:32:32-p271:32:32-p272:64:64-i64:64-i128:128-f80:128-n8:16:32:64-S128"
target triple = "x86_64-pc-linux-gnu"

@hf_gsm_a_rr_repeated_csg_pci_split = internal global i32 0, align 4
@ett_gsm_rr_rest_octets_elem = hidden global [61 x i32] zeroinitializer, align 16

; Function Attrs: null_pointer_is_valid sspstrong uwtable
define internal zeroext i1 @gsm_rr_csn_flag(ptr noundef %0, ptr noundef %1, i32 noundef %2, i32 noundef %3) #1 {
  %5 = alloca ptr, align 8
  %6 = alloca ptr, align 8
  %7 = alloca i32, align 4
  %8 = alloca i32, align 4
  %9 = alloca i8, align 1
  %10 = alloca i8, align 1
  store ptr %0, ptr %5, align 8
  store ptr %1, ptr %6, align 8
  store i32 %2, ptr %7, align 4
  store i32 %3, ptr %8, align 4
  call void @llvm.lifetime.start.p0(i64 1, ptr %9) #11
  %11 = load i32, ptr %7, align 4
  %12 = srem i32 %11, 8
  %13 = ashr i32 128, %12
  %14 = trunc i32 %13 to i8
  store i8 %14, ptr %9, align 1
  call void @llvm.lifetime.start.p0(i64 1, ptr %10) #11
  %15 = load ptr, ptr %5, align 8
  %16 = load i32, ptr %7, align 4
  %17 = ashr i32 %16, 3
  %18 = call zeroext i8 @tvb_get_uint8(ptr noundef %15, i32 noundef %17)
  store i8 %18, ptr %10, align 1
  %19 = load ptr, ptr %6, align 8
  %20 = load i32, ptr %8, align 4
  %21 = load ptr, ptr %5, align 8
  %22 = load i32, ptr %7, align 4
  %23 = call ptr @proto_tree_add_bits_item(ptr noundef %19, i32 noundef %20, ptr noundef %21, i32 noundef %22, i32 noundef 1, i32 noundef 0)
  %24 = load i8, ptr %10, align 1
  %25 = zext i8 %24 to i32
  %26 = load i8, ptr %9, align 1
  %27 = zext i8 %26 to i32
  %28 = and i32 %25, %27
  %29 = icmp ne i32 %28, 0
  call void @llvm.lifetime.end.p0(i64 1, ptr %10) #11
  call void @llvm.lifetime.end.p0(i64 1, ptr %9) #11
  ret i1 %29
}

; Function Attrs: null_pointer_is_valid sspstrong uwtable
define internal i32 @de_rr_eutran_csg_desc_mi(ptr noundef %0, ptr noundef %1, i32 noundef %2) #1 {
  %4 = alloca ptr, align 8
  %5 = alloca ptr, align 8
  %6 = alloca i32, align 4
  %7 = alloca ptr, align 8
  %8 = alloca ptr, align 8
  %9 = alloca i32, align 4
  store ptr %0, ptr %4, align 8
  store ptr %1, ptr %5, align 8
  store i32 %2, ptr %6, align 4
  call void @llvm.lifetime.start.p0(i64 8, ptr %7) #11
  call void @llvm.lifetime.start.p0(i64 8, ptr %8) #11
  call void @llvm.lifetime.start.p0(i64 4, ptr %9) #11
  %10 = load i32, ptr %6, align 4
  store i32 %10, ptr %9, align 4
  %11 = load ptr, ptr %5, align 8
  %12 = load ptr, ptr %4, align 8
  %13 = load i32, ptr %9, align 4
  %14 = ashr i32 %13, 3
  %15 = load i32, ptr getelementptr ([61 x i32], ptr @ett_gsm_rr_rest_octets_elem, i64 0, i64 26), align 8
  %16 = load ptr, ptr getelementptr ([61 x ptr], ptr @gsm_rr_rest_octets_elem_strings, i64 0, i64 26), align 16
  %17 = call ptr @proto_tree_add_subtree(ptr noundef %11, ptr noundef %12, i32 noundef %14, i32 noundef -1, i32 noundef %15, ptr noundef %8, ptr noundef %16)
  store ptr %17, ptr %7, align 8
  br label %18

18:                                               ; preds = %25, %3
  %19 = load ptr, ptr %4, align 8
  %20 = load ptr, ptr %7, align 8
  %21 = load i32, ptr %9, align 4
  %22 = add i32 %21, 1
  store i32 %22, ptr %9, align 4
  %23 = load i32, ptr @hf_gsm_a_rr_repeated_csg_pci_split, align 4
  %24 = call zeroext i1 @gsm_rr_csn_flag(ptr noundef %19, ptr noundef %20, i32 noundef %21, i32 noundef %23)
  br i1 %24, label %25, label %32

25:                                               ; preds = %18
  %26 = load ptr, ptr %4, align 8
  %27 = load ptr, ptr %7, align 8
  %28 = load i32, ptr %9, align 4
  %29 = call i32 @de_rr_eutran_pcid(ptr noundef %26, ptr noundef %27, i32 noundef %28)
  %30 = load i32, ptr %9, align 4
  %31 = add i32 %30, %29
  store i32 %31, ptr %9, align 4
  br label %18, !llvm.loop !99

32:                                               ; preds = %18
  %33 = load ptr, ptr %8, align 8
  %34 = load i32, ptr %9, align 4
  %35 = ashr i32 %34, 3
  %36 = load i32, ptr %6, align 4
  %37 = ashr i32 %36, 3
  %38 = sub i32 %35, %37
  %39 = add i32 %38, 1
  call void @proto_item_set_len(ptr noundef %33, i32 noundef %39)
  %40 = load i32, ptr %9, align 4
  %41 = load i32, ptr %6, align 4
  %42 = sub i32 %40, %41
  call void @llvm.lifetime.end.p0(i64 4, ptr %9) #11
  call void @llvm.lifetime.end.p0(i64 8, ptr %8) #11
  call void @llvm.lifetime.end.p0(i64 8, ptr %7) #11
  ret i32 %42
}