; Function Attrs: null_pointer_is_valid sspstrong uwtable
define internal fastcc i32 @de_rr_eutran_csg_desc_mi(ptr noundef %0, ptr noundef %1, i32 noundef %2) unnamed_addr #3 {
  %4 = alloca ptr, align 8
  call void @llvm.lifetime.start.p0(i64 8, ptr nonnull %4) #11
  %5 = ashr i32 %2, 3
  %6 = load i32, ptr getelementptr inbounds nuw (i8, ptr @ett_gsm_rr_rest_octets_elem, i64 104), align 8
  %7 = call ptr @proto_tree_add_subtree(ptr noundef %1, ptr noundef %0, i32 noundef %5, i32 noundef -1, i32 noundef %6, ptr noundef nonnull %4, ptr noundef nonnull @.str.1515)
  br label %8

8:                                                ; preds = %18, %3
  %.0 = phi i32 [ %2, %3 ], [ %20, %18 ]
  %9 = add i32 %.0, 1
  %10 = load i32, ptr @hf_gsm_a_rr_repeated_csg_pci_split, align 4
  %11 = and i32 %.0, 7
  %12 = lshr exact i32 128, %11
  %13 = ashr i32 %.0, 3
  %14 = call zeroext i8 @tvb_get_uint8(ptr noundef %0, i32 noundef %13)
  %15 = call ptr @proto_tree_add_bits_item(ptr noundef %7, i32 noundef %10, ptr noundef %0, i32 noundef %.0, i32 noundef 1, i32 noundef 0)
  %16 = zext i8 %14 to i32
  %17 = and i32 %12, %16
  %.not = icmp eq i32 %17, 0
  br i1 %.not, label %21, label %18

18:                                               ; preds = %8
  %19 = call fastcc i32 @de_rr_eutran_pcid(ptr noundef %0, ptr noundef %7, i32 noundef %9)
  %20 = add i32 %19, %9
  br label %8, !llvm.loop !99

21:                                               ; preds = %8
  %22 = load ptr, ptr %4, align 8
  %23 = ashr i32 %9, 3
  %reass.sub = sub nsw i32 %23, %5
  %24 = add nsw i32 %reass.sub, 1
  call void @proto_item_set_len(ptr noundef %22, i32 noundef %24)
  %25 = sub i32 %9, %2
  call void @llvm.lifetime.end.p0(i64 8, ptr nonnull %4) #11
  ret i32 %25
}